target datalayout = "e-m:e-p270:32:32-p271:32:32-p272:64:64-i64:64-i128:128-f80:128-n8:16:32:64-S128"
target triple = "x86_64-pc-linux-gnu"

%class.cmUVProcessChainBuilder = type { %"struct.std::array", %"class.std::vector", %"class.std::__cxx11::basic_string", i8, ptr }
%"struct.std::array" = type { [3 x %"struct.cmUVProcessChainBuilder::StdioConfiguration"] }
%"struct.cmUVProcessChainBuilder::StdioConfiguration" = type { i32, i32 }
%"class.std::vector" = type { %"struct.std::_Vector_base" }
%"struct.std::_Vector_base" = type { %"struct.std::_Vector_base<cmUVProcessChainBuilder::ProcessConfiguration, std::allocator<cmUVProcessChainBuilder::ProcessConfiguration>>::_Vector_impl" }
%"struct.std::_Vector_base<cmUVProcessChainBuilder::ProcessConfiguration, std::allocator<cmUVProcessChainBuilder::ProcessConfiguration>>::_Vector_impl" = type { %"struct.std::_Vector_base<cmUVProcessChainBuilder::ProcessConfiguration, std::allocator<cmUVProcessChainBuilder::ProcessConfiguration>>::_Vector_impl_data" }
%"struct.std::_Vector_base<cmUVProcessChainBuilder::ProcessConfiguration, std::allocator<cmUVProcessChainBuilder::ProcessConfiguration>>::_Vector_impl_data" = type { ptr, ptr, ptr }
%"class.std::__cxx11::basic_string" = type { %"struct.std::__cxx11::basic_string<char>::_Alloc_hider", i64, %union.anon }
%"struct.std::__cxx11::basic_string<char>::_Alloc_hider" = type { ptr }
%union.anon = type { i64, [8 x i8] }

; Function Attrs: mustprogress nounwind uwtable
define linkonce_odr dso_local noundef nonnull align 4 dereferenceable(8) ptr @_ZNSt14__array_traitsIN23cmUVProcessChainBuilder18StdioConfigurationELm3EE6_S_refERA3_KS1_m(ptr noundef nonnull align 4 dereferenceable(24) %0, i64 noundef %1) #0 comdat align 2 {
  %3 = alloca ptr, align 8
  %4 = alloca i64, align 8
  store ptr %0, ptr %3, align 8
  store i64 %1, ptr %4, align 8
  %5 = load ptr, ptr %3, align 8
  %6 = load i64, ptr %4, align 8
  %7 = getelementptr inbounds [3 x %"struct.cmUVProcessChainBuilder::StdioConfiguration"], ptr %5, i64 0, i64 %6
  ret ptr %7
}

; Function Attrs: mustprogress nounwind uwtable
define linkonce_odr dso_local noundef nonnull align 4 dereferenceable(8) ptr @_ZNSt5arrayIN23cmUVProcessChainBuilder18StdioConfigurationELm3EEixEm(ptr noundef nonnull align 4 dereferenceable(24) %0, i64 noundef %1) #0 comdat align 2 {
  %3 = alloca ptr, align 8
  %4 = alloca i64, align 8
  store ptr %0, ptr %3, align 8
  store i64 %1, ptr %4, align 8
  %5 = load ptr, ptr %3, align 8
  %6 = getelementptr inbounds %"struct.std::array", ptr %5, i32 0, i32 0
  %7 = load i64, ptr %4, align 8
  %8 = call noundef nonnull align 4 dereferenceable(8) ptr @_ZNSt14__array_traitsIN23cmUVProcessChainBuilder18StdioConfigurationELm3EE6_S_refERA3_KS1_m(ptr noundef nonnull align 4 dereferenceable(24) %6, i64 noundef %7) #12
  ret ptr %8
}

; Function Attrs: mustprogress nounwind uwtable
define dso_local noundef nonnull align 8 dereferenceable(96) ptr @_ZN23cmUVProcessChainBuilder16SetBuiltinStreamENS_6StreamE(ptr noundef nonnull align 8 dereferenceable(96) %0, i32 noundef %1) #0 align 2 {
  %3 = alloca ptr, align 8
  %4 = alloca i32, align 4
  %5 = alloca ptr, align 8
  store ptr %0, ptr %3, align 8
  store i32 %1, ptr %4, align 4
  %6 = load ptr, ptr %3, align 8
  %7 = load i32, ptr %4, align 4
  switch i32 %7, label %16 [
    i32 0, label %8
    i32 1, label %9
    i32 2, label %9
  ]

8:                                                ; preds = %2
  br label %16

9:                                                ; preds = %2, %2
  %10 = getelementptr inbounds %class.cmUVProcessChainBuilder, ptr %6, i32 0, i32 0
  %11 = load i32, ptr %4, align 4
  %12 = zext i32 %11 to i64
  %13 = call noundef nonnull align 4 dereferenceable(8) ptr @_ZNSt5arrayIN23cmUVProcessChainBuilder18StdioConfigurationELm3EEixEm(ptr noundef nonnull align 4 dereferenceable(24) %10, i64 noundef %12) #12
  store ptr %13, ptr %5, align 8
  %14 = load ptr, ptr %5, align 8
  %15 = getelementptr inbounds %"struct.cmUVProcessChainBuilder::StdioConfiguration", ptr %14, i32 0, i32 0
  store i32 1, ptr %15, align 4
  br label %16

16:                                               ; preds = %9, %8, %2
  ret ptr %6
}

; Function Attrs: mustprogress nounwind uwtable
define dso_local noundef nonnull align 8 dereferenceable(96) ptr @_ZN23cmUVProcessChainBuilder23SetMergedBuiltinStreamsEv(ptr noundef nonnull align 8 dereferenceable(96) %0) #0 align 2 {
  %2 = alloca ptr, align 8
  store ptr %0, ptr %2, align 8
  %3 = load ptr, ptr %2, align 8
  %4 = getelementptr inbounds %class.cmUVProcessChainBuilder, ptr %3, i32 0, i32 3
  store i8 1, ptr %4, align 8
  %5 = call noundef nonnull align 8 dereferenceable(96) ptr @_ZN23cmUVProcessChainBuilder16SetBuiltinStreamENS_6StreamE(ptr noundef nonnull align 8 dereferenceable(96) %3, i32 noundef 1)
  %6 = call noundef nonnull align 8 dereferenceable(96) ptr @_ZN23cmUVProcessChainBuilder16SetBuiltinStreamENS_6StreamE(ptr noundef nonnull align 8 dereferenceable(96) %5, i32 noundef 2)
  ret ptr %6
}